; Function Attrs: mustprogress uwtable
define hidden void @_ZN4cvc58internal15BoundVarManager13getCacheValueENS0_12NodeTemplateILb0EEEm(ptr dead_on_unwind noalias writable sret(%"class.cvc5::internal::NodeTemplate") align 8 %0, ptr noundef readonly captures(none) %1, i64 noundef %2) local_unnamed_addr #5 align 2 personality ptr @__gxx_personality_v0 {
.noexc:
  %3 = alloca %"class.cvc5::internal::NodeBuilder", align 8
  %4 = alloca %"class.cvc5::internal::NodeTemplate.5", align 8
  %5 = alloca %"class.cvc5::internal::NodeTemplate.5", align 8
  %6 = alloca %"class.cvc5::internal::Rational", align 8
  %7 = alloca %"class.cvc5::internal::NodeTemplate", align 8
  %8 = load ptr, ptr %1, align 8, !tbaa !96
  call void @llvm.lifetime.start.p0(i64 8, ptr nonnull %7) #20
  %9 = tail call noundef ptr @_ZN4cvc58internal11NodeManager9currentNMEv()
  call void @llvm.lifetime.start.p0(i64 32, ptr nonnull %6) #20, !noalias !111
  call void @_ZN4cvc58internal8RationalC2Em(ptr noundef nonnull align 8 dereferenceable(32) %6, i64 noundef %2)
  invoke void @_ZN4cvc58internal11NodeManager10mkConstIntERKNS0_8RationalE(ptr dead_on_unwind nonnull writable sret(%"class.cvc5::internal::NodeTemplate") align 8 %7, ptr noundef nonnull align 8 dereferenceable(3560) %9, ptr noundef nonnull align 8 dereferenceable(32) %6)
          to label %10 unwind label %14

10:                                               ; preds = %.noexc
  invoke void @__gmpq_clear(ptr noundef nonnull align 8 dereferenceable(32) %6)
          to label %19 unwind label %11

11:                                               ; preds = %10
  %12 = landingpad { ptr, i32 }
          catch ptr null
  %13 = extractvalue { ptr, i32 } %12, 0
  call void @__clang_call_terminate(ptr %13) #21
  unreachable

14:                                               ; preds = %.noexc
  %15 = landingpad { ptr, i32 }
          cleanup
  invoke void @__gmpq_clear(ptr noundef nonnull align 8 dereferenceable(32) %6)
          to label %_ZN4cvc58internal8RationalD2Ev.exit2.i unwind label %16

16:                                               ; preds = %14
  %17 = landingpad { ptr, i32 }
          catch ptr null
  %18 = extractvalue { ptr, i32 } %17, 0
  call void @__clang_call_terminate(ptr %18) #21
  unreachable

_ZN4cvc58internal8RationalD2Ev.exit2.i:           ; preds = %14
  call void @llvm.lifetime.end.p0(i64 32, ptr nonnull %6) #20, !noalias !111
  br label %.body

19:                                               ; preds = %10
  call void @llvm.lifetime.end.p0(i64 32, ptr nonnull %6) #20, !noalias !111
  %20 = load ptr, ptr %7, align 8, !tbaa !20
  call void @llvm.lifetime.start.p0(i64 8, ptr nonnull %4), !noalias !114
  call void @llvm.lifetime.start.p0(i64 8, ptr nonnull %5), !noalias !114
  call void @llvm.lifetime.start.p0(i64 128, ptr nonnull %3) #20, !noalias !117
  %21 = getelementptr inbounds nuw i8, ptr %8, i64 16
  %22 = load ptr, ptr %21, align 8, !tbaa !23, !noalias !117
  invoke void @_ZN4cvc58internal11NodeBuilderC1EPNS0_11NodeManagerENS0_4kind6Kind_tE(ptr noundef nonnull align 8 dereferenceable(124) %3, ptr noundef %22, i32 noundef 11)
          to label %.noexc5 unwind label %47

.noexc5:                                          ; preds = %19
  store ptr %8, ptr %4, align 8, !tbaa !96, !noalias !117
  %23 = invoke noundef nonnull align 8 dereferenceable(124) ptr @_ZN4cvc58internal11NodeBuilderlsENS0_12NodeTemplateILb0EEE(ptr noundef nonnull align 8 dereferenceable(124) %3, ptr noundef nonnull %4)
          to label %24 unwind label %29, !noalias !117

24:                                               ; preds = %.noexc5
  store ptr %20, ptr %5, align 8, !tbaa !96, !noalias !117
  %25 = invoke noundef nonnull align 8 dereferenceable(124) ptr @_ZN4cvc58internal11NodeBuilderlsENS0_12NodeTemplateILb0EEE(ptr noundef nonnull align 8 dereferenceable(124) %23, ptr noundef nonnull %5)
          to label %26 unwind label %31, !noalias !117

26:                                               ; preds = %24
  invoke void @_ZN4cvc58internal11NodeBuilder13constructNodeEv(ptr dead_on_unwind writable sret(%"class.cvc5::internal::NodeTemplate") align 8 %0, ptr noundef nonnull align 8 dereferenceable(124) %3)
          to label %33 unwind label %27

27:                                               ; preds = %26
  %28 = landingpad { ptr, i32 }
          cleanup
  br label %.body.i

29:                                               ; preds = %.noexc5
  %30 = landingpad { ptr, i32 }
          cleanup
  br label %.body.i

31:                                               ; preds = %24
  %32 = landingpad { ptr, i32 }
          cleanup
  br label %.body.i

.body.i:                                          ; preds = %31, %29, %27
  %.pn5.i.i = phi { ptr, i32 } [ %28, %27 ], [ %32, %31 ], [ %30, %29 ]
  call void @_ZN4cvc58internal11NodeBuilderD1Ev(ptr noundef nonnull align 8 dereferenceable(124) %3) #20
  call void @llvm.lifetime.end.p0(i64 128, ptr nonnull %3) #20, !noalias !117
  br label %.body6

33:                                               ; preds = %26
  call void @_ZN4cvc58internal11NodeBuilderD1Ev(ptr noundef nonnull align 8 dereferenceable(124) %3) #20
  call void @llvm.lifetime.end.p0(i64 128, ptr nonnull %3) #20, !noalias !117
  call void @llvm.lifetime.end.p0(i64 8, ptr nonnull %4), !noalias !114
  call void @llvm.lifetime.end.p0(i64 8, ptr nonnull %5), !noalias !114
  %34 = load ptr, ptr %7, align 8, !tbaa !20
  %35 = load i64, ptr %34, align 8
  %36 = and i64 %35, 1152920405095219200
  %.not.i.i = icmp eq i64 %36, 1152920405095219200
  br i1 %.not.i.i, label %_ZN4cvc58internal12NodeTemplateILb1EED2Ev.exit, label %37, !prof !110

37:                                               ; preds = %33
  %38 = add i64 %35, 1152920405095219200
  %39 = and i64 %38, 1152920405095219200
  %40 = and i64 %35, -1152920405095219201
  %41 = or disjoint i64 %39, %40
  store i64 %41, ptr %34, align 8
  %42 = icmp eq i64 %39, 0
  br i1 %42, label %43, label %_ZN4cvc58internal12NodeTemplateILb1EED2Ev.exit, !prof !110

43:                                               ; preds = %37
  invoke void @_ZN4cvc58internal4expr9NodeValue15markForDeletionEv(ptr noundef nonnull align 8 dereferenceable(24) %34)
          to label %_ZN4cvc58internal12NodeTemplateILb1EED2Ev.exit unwind label %44

44:                                               ; preds = %43
  %45 = landingpad { ptr, i32 }
          catch ptr null
  %46 = extractvalue { ptr, i32 } %45, 0
  call void @__clang_call_terminate(ptr %46) #21
  unreachable

_ZN4cvc58internal12NodeTemplateILb1EED2Ev.exit:   ; preds = %33, %37, %43
  call void @llvm.lifetime.end.p0(i64 8, ptr nonnull %7) #20
  ret void

47:                                               ; preds = %19
  %48 = landingpad { ptr, i32 }
          cleanup
  br label %.body6

.body6:                                           ; preds = %.body.i, %47
  %eh.lpad-body7 = phi { ptr, i32 } [ %48, %47 ], [ %.pn5.i.i, %.body.i ]
  call void @_ZN4cvc58internal12NodeTemplateILb1EED2Ev(ptr noundef nonnull align 8 dereferenceable(8) %7) #20
  br label %.body

.body:                                            ; preds = %_ZN4cvc58internal8RationalD2Ev.exit2.i, %.body6
  %.pn = phi { ptr, i32 } [ %eh.lpad-body7, %.body6 ], [ %15, %_ZN4cvc58internal8RationalD2Ev.exit2.i ]
  call void @llvm.lifetime.end.p0(i64 8, ptr nonnull %7) #20
  resume { ptr, i32 } %.pn
}